target datalayout = "e-m:e-p270:32:32-p271:32:32-p272:64:64-i64:64-i128:128-f80:128-n8:16:32:64-S128"
target triple = "x86_64-pc-linux-gnu"

%union.pthread_cond_t = type { %struct.__pthread_cond_s }
%struct.__pthread_cond_s = type { %union.__atomic_wide_counter, %union.__atomic_wide_counter, [2 x i32], [2 x i32], i32, i32, [2 x i32] }
%union.__atomic_wide_counter = type { i64 }
%union.pthread_mutex_t = type { %struct.__pthread_mutex_s }
%struct.__pthread_mutex_s = type { i32, i32, i32, i32, i32, i16, i16, %struct.__pthread_internal_list }
%struct.__pthread_internal_list = type { ptr, ptr }
%struct.step_complete_t = type { %union.pthread_cond_t, %union.pthread_mutex_t, i32, i32, i32, ptr, i32, i32, i8, ptr, i32, ptr }

@.str.9 = private unnamed_addr constant [29 x i8] c"%s: pthread_mutex_lock(): %m\00", align 1
@.str.14 = private unnamed_addr constant [31 x i8] c"%s: pthread_mutex_unlock(): %m\00", align 1
@__func__.stepd_send_step_complete_msgs = private unnamed_addr constant [30 x i8] c"stepd_send_step_complete_msgs\00", align 1

; Function Attrs: nounwind uwtable
define internal i32 @_bit_getrange(i32 noundef %0, i32 noundef %1, ptr noundef %2, ptr noundef %3) #0 {
  %5 = alloca i32, align 4
  %6 = alloca i32, align 4
  %7 = alloca i32, align 4
  %8 = alloca ptr, align 8
  %9 = alloca ptr, align 8
  %10 = alloca i32, align 4
  %11 = alloca i8, align 1
  %12 = alloca i32, align 4
  store i32 %0, ptr %6, align 4
  store i32 %1, ptr %7, align 4
  store ptr %2, ptr %8, align 8
  store ptr %3, ptr %9, align 8
  call void @llvm.lifetime.start.p0(i64 4, ptr %10) #12
  call void @llvm.lifetime.start.p0(i64 1, ptr %11) #12
  store i8 0, ptr %11, align 1
  %13 = load ptr, ptr getelementptr inbounds nuw (%struct.step_complete_t, ptr @step_complete, i32 0, i32 9), align 8
  %14 = icmp ne ptr %13, null
  br i1 %14, label %16, label %15

15:                                               ; preds = %4
  store i32 0, ptr %5, align 4
  store i32 1, ptr %12, align 4
  br label %57

16:                                               ; preds = %4
  %17 = load i32, ptr %6, align 4
  store i32 %17, ptr %10, align 4
  br label %18

18:                                               ; preds = %49, %16
  %19 = load i32, ptr %10, align 4
  %20 = load i32, ptr %7, align 4
  %21 = icmp slt i32 %19, %20
  br i1 %21, label %22, label %52

22:                                               ; preds = %18
  %23 = load ptr, ptr getelementptr inbounds nuw (%struct.step_complete_t, ptr @step_complete, i32 0, i32 9), align 8
  %24 = load i32, ptr %10, align 4
  %25 = sext i32 %24 to i64
  %26 = call i32 @slurm_bit_test(ptr noundef %23, i64 noundef %25)
  %27 = icmp ne i32 %26, 0
  br i1 %27, label %28, label %40

28:                                               ; preds = %22
  %29 = load i8, ptr %11, align 1, !range !8, !noundef !9
  %30 = trunc i8 %29 to i1
  br i1 %30, label %31, label %34

31:                                               ; preds = %28
  %32 = load i32, ptr %10, align 4
  %33 = load ptr, ptr %9, align 8
  store i32 %32, ptr %33, align 4
  br label %49

34:                                               ; preds = %28
  store i8 1, ptr %11, align 1
  %35 = load i32, ptr %10, align 4
  %36 = load ptr, ptr %8, align 8
  store i32 %35, ptr %36, align 4
  %37 = load i32, ptr %10, align 4
  %38 = load ptr, ptr %9, align 8
  store i32 %37, ptr %38, align 4
  br label %39

39:                                               ; preds = %34
  br label %48

40:                                               ; preds = %22
  %41 = load i8, ptr %11, align 1, !range !8, !noundef !9
  %42 = trunc i8 %41 to i1
  br i1 %42, label %44, label %43

43:                                               ; preds = %40
  br label %49

44:                                               ; preds = %40
  %45 = load i32, ptr %10, align 4
  %46 = sub nsw i32 %45, 1
  %47 = load ptr, ptr %9, align 8
  store i32 %46, ptr %47, align 4
  br label %52

48:                                               ; preds = %39
  br label %49

49:                                               ; preds = %48, %43, %31
  %50 = load i32, ptr %10, align 4
  %51 = add nsw i32 %50, 1
  store i32 %51, ptr %10, align 4
  br label %18, !llvm.loop !18

52:                                               ; preds = %44, %18
  %53 = load i8, ptr %11, align 1, !range !8, !noundef !9
  %54 = trunc i8 %53 to i1
  br i1 %54, label %55, label %56

55:                                               ; preds = %52
  store i32 1, ptr %5, align 4
  store i32 1, ptr %12, align 4
  br label %57

56:                                               ; preds = %52
  store i32 0, ptr %5, align 4
  store i32 1, ptr %12, align 4
  br label %57

57:                                               ; preds = %56, %55, %15
  call void @llvm.lifetime.end.p0(i64 1, ptr %11) #12
  call void @llvm.lifetime.end.p0(i64 4, ptr %10) #12
  %58 = load i32, ptr %5, align 4
  ret i32 %58
}

; Function Attrs: nounwind uwtable
define dso_local void @stepd_send_step_complete_msgs(ptr noundef %0) #0 {
  %2 = alloca ptr, align 8
  %3 = alloca i32, align 4
  %4 = alloca i32, align 4
  %5 = alloca i32, align 4
  %6 = alloca i32, align 4
  %7 = alloca i8, align 1
  %8 = alloca i32, align 4
  %9 = alloca i32, align 4
  %10 = alloca i32, align 4
  %11 = alloca i32, align 4
  store ptr %0, ptr %2, align 8
  call void @llvm.lifetime.start.p0(i64 4, ptr %3) #12
  call void @llvm.lifetime.start.p0(i64 4, ptr %4) #12
  call void @llvm.lifetime.start.p0(i64 4, ptr %5) #12
  store i32 -1, ptr %5, align 4
  call void @llvm.lifetime.start.p0(i64 4, ptr %6) #12
  store i32 -1, ptr %6, align 4
  call void @llvm.lifetime.start.p0(i64 1, ptr %7) #12
  store i8 0, ptr %7, align 1
  br label %12

12:                                               ; preds = %1
  call void @llvm.lifetime.start.p0(i64 4, ptr %8) #12
  %13 = call i32 @pthread_mutex_lock(ptr noundef getelementptr inbounds nuw (%struct.step_complete_t, ptr @step_complete, i32 0, i32 1)) #12
  store i32 %13, ptr %8, align 4
  %14 = load i32, ptr %8, align 4
  %15 = icmp ne i32 %14, 0
  br i1 %15, label %16, label %19

16:                                               ; preds = %12
  %17 = load i32, ptr %8, align 4
  %18 = call ptr @__errno_location() #13
  store i32 %17, ptr %18, align 4
  call void (ptr, ...) @fatal_abort(ptr noundef @.str.9, ptr noundef @__func__.stepd_send_step_complete_msgs) #14
  unreachable

19:                                               ; preds = %12
  call void @llvm.lifetime.end.p0(i64 4, ptr %8) #12
  br label %20

20:                                               ; preds = %19
  br label %21

21:                                               ; preds = %20
  store i32 0, ptr %3, align 4
  %22 = load ptr, ptr getelementptr inbounds nuw (%struct.step_complete_t, ptr @step_complete, i32 0, i32 9), align 8
  %23 = icmp ne ptr %22, null
  br i1 %23, label %24, label %28

24:                                               ; preds = %21
  %25 = load ptr, ptr getelementptr inbounds nuw (%struct.step_complete_t, ptr @step_complete, i32 0, i32 9), align 8
  %26 = call i64 @bit_size(ptr noundef %25)
  %27 = trunc i64 %26 to i32
  store i32 %27, ptr %4, align 4
  br label %29

28:                                               ; preds = %21
  store i32 0, ptr %4, align 4
  br label %29

29:                                               ; preds = %28, %24
  %30 = load i32, ptr %4, align 4
  %31 = icmp eq i32 %30, 0
  br i1 %31, label %32, label %46

32:                                               ; preds = %29
  %33 = load ptr, ptr %2, align 8
  %34 = load i32, ptr getelementptr inbounds nuw (%struct.step_complete_t, ptr @step_complete, i32 0, i32 2), align 8
  %35 = load i32, ptr getelementptr inbounds nuw (%struct.step_complete_t, ptr @step_complete, i32 0, i32 2), align 8
  call void @_one_step_complete_msg(ptr noundef %33, i32 noundef %34, i32 noundef %35)
  br label %36

36:                                               ; preds = %32
  call void @llvm.lifetime.start.p0(i64 4, ptr %9) #12
  %37 = call i32 @pthread_mutex_unlock(ptr noundef getelementptr inbounds nuw (%struct.step_complete_t, ptr @step_complete, i32 0, i32 1)) #12
  store i32 %37, ptr %9, align 4
  %38 = load i32, ptr %9, align 4
  %39 = icmp ne i32 %38, 0
  br i1 %39, label %40, label %43

40:                                               ; preds = %36
  %41 = load i32, ptr %9, align 4
  %42 = call ptr @__errno_location() #13
  store i32 %41, ptr %42, align 4
  call void (ptr, ...) @fatal_abort(ptr noundef @.str.14, ptr noundef @__func__.stepd_send_step_complete_msgs) #14
  unreachable

43:                                               ; preds = %36
  call void @llvm.lifetime.end.p0(i64 4, ptr %9) #12
  br label %44

44:                                               ; preds = %43
  br label %45

45:                                               ; preds = %44
  store i32 1, ptr %10, align 4
  br label %89

46:                                               ; preds = %29
  br label %47

47:                                               ; preds = %59, %46
  %48 = load i32, ptr %3, align 4
  %49 = load i32, ptr %4, align 4
  %50 = call i32 @_bit_getrange(i32 noundef %48, i32 noundef %49, ptr noundef %5, ptr noundef %6)
  %51 = icmp ne i32 %50, 0
  br i1 %51, label %52, label %71

52:                                               ; preds = %47
  %53 = load i32, ptr %3, align 4
  %54 = icmp eq i32 %53, 0
  br i1 %54, label %55, label %59

55:                                               ; preds = %52
  %56 = load i32, ptr %5, align 4
  %57 = icmp eq i32 %56, 0
  br i1 %57, label %58, label %59

58:                                               ; preds = %55
  store i8 1, ptr %7, align 1
  store i32 -1, ptr %5, align 4
  br label %59

59:                                               ; preds = %58, %55, %52
  %60 = load ptr, ptr %2, align 8
  %61 = load i32, ptr %5, align 4
  %62 = load i32, ptr getelementptr inbounds nuw (%struct.step_complete_t, ptr @step_complete, i32 0, i32 2), align 8
  %63 = add nsw i32 %61, %62
  %64 = add nsw i32 %63, 1
  %65 = load i32, ptr %6, align 4
  %66 = load i32, ptr getelementptr inbounds nuw (%struct.step_complete_t, ptr @step_complete, i32 0, i32 2), align 8
  %67 = add nsw i32 %65, %66
  %68 = add nsw i32 %67, 1
  call void @_one_step_complete_msg(ptr noundef %60, i32 noundef %64, i32 noundef %68)
  %69 = load i32, ptr %6, align 4
  %70 = add nsw i32 %69, 1
  store i32 %70, ptr %3, align 4
  br label %47, !llvm.loop !15

71:                                               ; preds = %47
  %72 = load i8, ptr %7, align 1, !range !8, !noundef !9
  %73 = trunc i8 %72 to i1
  br i1 %73, label %78, label %74

74:                                               ; preds = %71
  %75 = load ptr, ptr %2, align 8
  %76 = load i32, ptr getelementptr inbounds nuw (%struct.step_complete_t, ptr @step_complete, i32 0, i32 2), align 8
  %77 = load i32, ptr getelementptr inbounds nuw (%struct.step_complete_t, ptr @step_complete, i32 0, i32 2), align 8
  call void @_one_step_complete_msg(ptr noundef %75, i32 noundef %76, i32 noundef %77)
  br label %78

78:                                               ; preds = %74, %71
  br label %79

79:                                               ; preds = %78
  call void @llvm.lifetime.start.p0(i64 4, ptr %11) #12
  %80 = call i32 @pthread_mutex_unlock(ptr noundef getelementptr inbounds nuw (%struct.step_complete_t, ptr @step_complete, i32 0, i32 1)) #12
  store i32 %80, ptr %11, align 4
  %81 = load i32, ptr %11, align 4
  %82 = icmp ne i32 %81, 0
  br i1 %82, label %83, label %86

83:                                               ; preds = %79
  %84 = load i32, ptr %11, align 4
  %85 = call ptr @__errno_location() #13
  store i32 %84, ptr %85, align 4
  call void (ptr, ...) @fatal_abort(ptr noundef @.str.14, ptr noundef @__func__.stepd_send_step_complete_msgs) #14
  unreachable

86:                                               ; preds = %79
  call void @llvm.lifetime.end.p0(i64 4, ptr %11) #12
  br label %87

87:                                               ; preds = %86
  br label %88

88:                                               ; preds = %87
  store i32 0, ptr %10, align 4
  br label %89

89:                                               ; preds = %88, %45
  call void @llvm.lifetime.end.p0(i64 1, ptr %7) #12
  call void @llvm.lifetime.end.p0(i64 4, ptr %6) #12
  call void @llvm.lifetime.end.p0(i64 4, ptr %5) #12
  call void @llvm.lifetime.end.p0(i64 4, ptr %4) #12
  call void @llvm.lifetime.end.p0(i64 4, ptr %3) #12
  %90 = load i32, ptr %10, align 4
  switch i32 %90, label %92 [
    i32 0, label %91
    i32 1, label %91
  ]

91:                                               ; preds = %89, %89
  ret void

92:                                               ; preds = %89
  unreachable
}