; Function Attrs: nounwind uwtable
define dso_local void @stepd_send_step_complete_msgs(ptr noundef readonly captures(none) %0) local_unnamed_addr #0 {
  %2 = tail call i32 @pthread_mutex_lock(ptr noundef nonnull getelementptr inbounds nuw (i8, ptr @step_complete, i64 48)) #17
  %.not = icmp eq i32 %2, 0
  br i1 %.not, label %5, label %3

3:                                                ; preds = %1
  %4 = tail call ptr @__errno_location() #18
  store i32 %2, ptr %4, align 4
  tail call void (ptr, ...) @fatal_abort(ptr noundef nonnull @.str.9, ptr noundef nonnull @__func__.stepd_send_step_complete_msgs) #19
  unreachable

5:                                                ; preds = %1
  %6 = load ptr, ptr getelementptr inbounds nuw (i8, ptr @step_complete, i64 128), align 8
  %.not21 = icmp eq ptr %6, null
  br i1 %.not21, label %.thread, label %7

7:                                                ; preds = %5
  %8 = tail call i64 @bit_size(ptr noundef nonnull %6) #17
  %9 = trunc i64 %8 to i32
  %10 = icmp eq i32 %9, 0
  br i1 %10, label %.thread, label %.split16

.split16:                                         ; preds = %7
  %11 = load ptr, ptr getelementptr inbounds nuw (i8, ptr @step_complete, i64 128), align 8
  %.not.i = icmp ne ptr %11, null
  %12 = icmp sgt i32 %9, 0
  %or.cond93 = and i1 %.not.i, %12
  br i1 %or.cond93, label %.lr.ph.i.preheader, label %.critedge

.lr.ph.i.preheader:                               ; preds = %.split16
  %zext = and i64 %8, 2147483647
  br label %.lr.ph.i

.lr.ph.i:                                         ; preds = %.lr.ph.i.preheader, %.sink.split.i
  %.350 = phi i32 [ %.552, %.sink.split.i ], [ -1, %.lr.ph.i.preheader ]
  %.2 = phi i32 [ %.3, %.sink.split.i ], [ -1, %.lr.ph.i.preheader ]
  %indvars.iv.i = phi i64 [ %indvars.iv.next.i, %.sink.split.i ], [ 0, %.lr.ph.i.preheader ]
  %.023.i = phi i1 [ %.not18.i, %.sink.split.i ], [ false, %.lr.ph.i.preheader ]
  %13 = load ptr, ptr getelementptr inbounds nuw (i8, ptr @step_complete, i64 128), align 8
  %14 = tail call i32 @slurm_bit_test(ptr noundef %13, i64 noundef %indvars.iv.i) #17
  %.not18.i = icmp ne i32 %14, 0
  br i1 %.not18.i, label %15, label %17

15:                                               ; preds = %.lr.ph.i
  %16 = trunc nsw i64 %indvars.iv.i to i32
  %spec.select = select i1 %.023.i, i32 %.350, i32 %16
  br label %.sink.split.i

17:                                               ; preds = %.lr.ph.i
  br i1 %.023.i, label %_bit_getrange.exit.thread77, label %.sink.split.i

_bit_getrange.exit.thread77:                      ; preds = %17
  %18 = trunc nsw i64 %indvars.iv.i to i32
  %19 = add nsw i32 %18, -1
  br label %.split.preheader

.sink.split.i:                                    ; preds = %15, %17
  %.552 = phi i32 [ %.350, %17 ], [ %spec.select, %15 ]
  %.3 = phi i32 [ %.2, %17 ], [ %16, %15 ]
  %indvars.iv.next.i = add nuw nsw i64 %indvars.iv.i, 1
  %20 = icmp eq i64 %indvars.iv.next.i, %zext
  br i1 %20, label %_bit_getrange.exit, label %.lr.ph.i, !llvm.loop !15

_bit_getrange.exit:                               ; preds = %.sink.split.i
  br i1 %.not18.i, label %.split.preheader, label %.critedge

.split.preheader:                                 ; preds = %_bit_getrange.exit.thread77, %_bit_getrange.exit
  %.04567.ph = phi i32 [ %.3, %_bit_getrange.exit ], [ %19, %_bit_getrange.exit.thread77 ]
  %.04766.ph = phi i32 [ %.552, %_bit_getrange.exit ], [ %.350, %_bit_getrange.exit.thread77 ]
  br label %.split

.thread:                                          ; preds = %5, %7
  %21 = load i32, ptr getelementptr inbounds nuw (i8, ptr @step_complete, i64 88), align 8
  tail call fastcc void @_one_step_complete_msg(ptr noundef %0, i32 noundef %21, i32 noundef %21)
  %22 = tail call i32 @pthread_mutex_unlock(ptr noundef nonnull getelementptr inbounds nuw (i8, ptr @step_complete, i64 48)) #17
  %.not24 = icmp eq i32 %22, 0
  br i1 %.not24, label %48, label %23

23:                                               ; preds = %.thread
  %24 = tail call ptr @__errno_location() #18
  store i32 %22, ptr %24, align 4
  tail call void (ptr, ...) @fatal_abort(ptr noundef nonnull @.str.14, ptr noundef nonnull @__func__.stepd_send_step_complete_msgs) #19
  unreachable

.split:                                           ; preds = %.split.backedge, %.split.preheader
  %.069 = phi i32 [ 0, %.split.preheader ], [ %30, %.split.backedge ]
  %.01568 = phi i1 [ false, %.split.preheader ], [ %spec.select59, %.split.backedge ]
  %.04567 = phi i32 [ %.04567.ph, %.split.preheader ], [ %.04567.be, %.split.backedge ]
  %.04766 = phi i32 [ %.04766.ph, %.split.preheader ], [ %.04766.be, %.split.backedge ]
  %25 = icmp eq i32 %.069, 0
  %26 = icmp eq i32 %.04766, 0
  %or.cond = select i1 %25, i1 %26, i1 false
  %spec.select58 = select i1 %or.cond, i32 -1, i32 %.04766
  %spec.select59 = select i1 %or.cond, i1 true, i1 %.01568
  %27 = load i32, ptr getelementptr inbounds nuw (i8, ptr @step_complete, i64 88), align 8
  %28 = add i32 %27, 1
  %29 = add i32 %28, %spec.select58
  %30 = add i32 %.04567, 1
  %31 = add i32 %30, %27
  tail call fastcc void @_one_step_complete_msg(ptr noundef %0, i32 noundef %29, i32 noundef %31)
  %32 = load ptr, ptr getelementptr inbounds nuw (i8, ptr @step_complete, i64 128), align 8
  %.not.i25 = icmp ne ptr %32, null
  %33 = icmp slt i32 %30, %9
  %or.cond86 = and i1 %.not.i25, %33
  br i1 %or.cond86, label %.lr.ph.preheader.i31, label %._crit_edge

.lr.ph.preheader.i31:                             ; preds = %.split
  %34 = sext i32 %30 to i64
  br label %.lr.ph.i32

.lr.ph.i32:                                       ; preds = %.sink.split.i36, %.lr.ph.preheader.i31
  %.855 = phi i32 [ %spec.select58, %.lr.ph.preheader.i31 ], [ %.10, %.sink.split.i36 ]
  %.6 = phi i32 [ %.04567, %.lr.ph.preheader.i31 ], [ %.7, %.sink.split.i36 ]
  %indvars.iv.i33 = phi i64 [ %34, %.lr.ph.preheader.i31 ], [ %indvars.iv.next.i38, %.sink.split.i36 ]
  %.023.i34 = phi i1 [ false, %.lr.ph.preheader.i31 ], [ %.not18.i35, %.sink.split.i36 ]
  %35 = load ptr, ptr getelementptr inbounds nuw (i8, ptr @step_complete, i64 128), align 8
  %36 = tail call i32 @slurm_bit_test(ptr noundef %35, i64 noundef %indvars.iv.i33) #17
  %.not18.i35 = icmp ne i32 %36, 0
  br i1 %.not18.i35, label %37, label %39

37:                                               ; preds = %.lr.ph.i32
  %38 = trunc nsw i64 %indvars.iv.i33 to i32
  %spec.select60 = select i1 %.023.i34, i32 %.855, i32 %38
  br label %.sink.split.i36

39:                                               ; preds = %.lr.ph.i32
  br i1 %.023.i34, label %40, label %.sink.split.i36

40:                                               ; preds = %39
  %41 = trunc nsw i64 %indvars.iv.i33 to i32
  %42 = add nsw i32 %41, -1
  br label %.split.backedge

.sink.split.i36:                                  ; preds = %37, %39
  %.10 = phi i32 [ %.855, %39 ], [ %spec.select60, %37 ]
  %.7 = phi i32 [ %.6, %39 ], [ %38, %37 ]
  %indvars.iv.next.i38 = add nsw i64 %indvars.iv.i33, 1
  %lftr.wideiv.i39 = trunc i64 %indvars.iv.next.i38 to i32
  %exitcond.not.i40 = icmp eq i32 %9, %lftr.wideiv.i39
  br i1 %exitcond.not.i40, label %_bit_getrange.exit41, label %.lr.ph.i32, !llvm.loop !15

_bit_getrange.exit41:                             ; preds = %.sink.split.i36
  br i1 %.not18.i35, label %.split.backedge, label %._crit_edge

.split.backedge:                                  ; preds = %_bit_getrange.exit41, %40
  %.04567.be = phi i32 [ %.7, %_bit_getrange.exit41 ], [ %42, %40 ]
  %.04766.be = phi i32 [ %.10, %_bit_getrange.exit41 ], [ %.855, %40 ]
  br label %.split, !llvm.loop !16

._crit_edge:                                      ; preds = %.split, %_bit_getrange.exit41
  br i1 %spec.select59, label %44, label %.critedge

.critedge:                                        ; preds = %.split16, %_bit_getrange.exit, %._crit_edge
  %43 = load i32, ptr getelementptr inbounds nuw (i8, ptr @step_complete, i64 88), align 8
  tail call fastcc void @_one_step_complete_msg(ptr noundef %0, i32 noundef %43, i32 noundef %43)
  br label %44

44:                                               ; preds = %._crit_edge, %.critedge
  %45 = tail call i32 @pthread_mutex_unlock(ptr noundef nonnull getelementptr inbounds nuw (i8, ptr @step_complete, i64 48)) #17
  %.not23 = icmp eq i32 %45, 0
  br i1 %.not23, label %48, label %46

46:                                               ; preds = %44
  %47 = tail call ptr @__errno_location() #18
  store i32 %45, ptr %47, align 4
  tail call void (ptr, ...) @fatal_abort(ptr noundef nonnull @.str.14, ptr noundef nonnull @__func__.stepd_send_step_complete_msgs) #19
  unreachable

48:                                               ; preds = %44, %.thread
  ret void
}